target datalayout = "e-m:e-p270:32:32-p271:32:32-p272:64:64-i64:64-i128:128-f80:128-n8:16:32:64-S128"
target triple = "x86_64-pc-linux-gnu"

%class.rational = type { %class.mpq }
%class.mpq = type { %class.mpz, %class.mpz }
%class.mpz = type { i32, i8, ptr }
%"class.smt::theory_wmaxsat" = type { %"class.smt::theory.base", ptr, %class.mpz_manager, %class.ref_vector, %class.ref_vector.3, %class.vector.8, %class._scoped_numeral_vector, %class._scoped_numeral_vector, %class.svector.11, i32, %class.svector.11, %class.svector.11, %class.rational, %class._scoped_numeral, %class._scoped_numeral, i8, [7 x i8], %class.u_map, %class.svector, i8, i8, i8, %class.rational, %class.svector.13, %class.svector.13, %"struct.smt::theory_wmaxsat::stats" }
%"class.smt::theory.base" = type <{ ptr, i32, [4 x i8], ptr, ptr, %class.ptr_vector, %class.svector, i32, i8 }>
%class.ptr_vector = type { %class.vector }
%class.vector = type { ptr }
%class.mpz_manager = type { %class.small_object_allocator, %"class.std::recursive_mutex", [4 x i8], i32, %class.mpz, %class.mpz }
%class.small_object_allocator = type { [32 x ptr], [32 x ptr], i64 }
%"class.std::recursive_mutex" = type { %"class.std::__recursive_mutex_base" }
%"class.std::__recursive_mutex_base" = type { %union.pthread_mutex_t }
%union.pthread_mutex_t = type { %struct.__pthread_mutex_s }
%struct.__pthread_mutex_s = type { i32, i32, i32, i32, i32, i16, i16, %struct.__pthread_internal_list }
%struct.__pthread_internal_list = type { ptr, ptr }
%class.ref_vector = type { %class.ref_vector_core }
%class.ref_vector_core = type { %class.ref_manager_wrapper, %class.ptr_vector.1 }
%class.ref_manager_wrapper = type { ptr }
%class.ptr_vector.1 = type { %class.vector.2 }
%class.vector.2 = type { ptr }
%class.ref_vector.3 = type { %class.ref_vector_core.4 }
%class.ref_vector_core.4 = type { %class.ref_manager_wrapper.5, %class.ptr_vector.6 }
%class.ref_manager_wrapper.5 = type { ptr }
%class.ptr_vector.6 = type { %class.vector.7 }
%class.vector.7 = type { ptr }
%class.vector.8 = type { ptr }
%class._scoped_numeral_vector = type { %class.svector.9, ptr }
%class.svector.9 = type { %class.vector.10 }
%class.vector.10 = type { ptr }
%class.svector.11 = type { %class.vector.12 }
%class.vector.12 = type { ptr }
%class._scoped_numeral = type { ptr, %class.mpz }
%class.u_map = type { %class.map }
%class.map = type { %class.table2map }
%class.table2map = type { %class.core_hashtable }
%class.core_hashtable = type <{ ptr, i32, i32, i32, [4 x i8] }>
%class.svector = type { %class.vector.0 }
%class.vector.0 = type { ptr }
%class.svector.13 = type { %class.vector.14 }
%class.vector.14 = type { ptr }
%"struct.smt::theory_wmaxsat::stats" = type { i32, i32 }

; Function Attrs: mustprogress uwtable
define hidden noundef i32 @_ZN3smt14theory_wmaxsat14final_check_ehEv(ptr noundef nonnull align 8 dereferenceable(952) %0) unnamed_addr #6 align 2 {
  %2 = alloca ptr, align 8
  store ptr %0, ptr %2, align 8, !tbaa !28
  %3 = load ptr, ptr %2, align 8
  %4 = getelementptr inbounds nuw %"class.smt::theory_wmaxsat", ptr %3, i32 0, i32 21
  %5 = load i8, ptr %4, align 2, !tbaa !90, !range !12, !noundef !13
  %6 = trunc i8 %5 to i1
  br i1 %6, label %7, label %8

7:                                                ; preds = %1
  call void @_ZN3smt14theory_wmaxsat9normalizeEv(ptr noundef nonnull align 8 dereferenceable(952) %3)
  br label %8

8:                                                ; preds = %7, %1
  ret i32 0
}