; Function Attrs: mustprogress uwtable
define hidden noundef i32 @_ZN3smt14theory_wmaxsat14final_check_ehEv(ptr noundef nonnull align 8 dereferenceable(952) %0) unnamed_addr #4 align 2 {
  %2 = getelementptr inbounds nuw i8, ptr %0, i64 890
  %3 = load i8, ptr %2, align 2, !tbaa !85, !range !107, !noundef !108
  %4 = trunc nuw i8 %3 to i1
  br i1 %4, label %5, label %6

5:                                                ; preds = %1
  tail call void @_ZN3smt14theory_wmaxsat9normalizeEv(ptr noundef nonnull align 8 dereferenceable(952) %0)
  br label %6

6:                                                ; preds = %5, %1
  ret i32 0
}